target datalayout = "e-m:e-p270:32:32-p271:32:32-p272:64:64-i64:64-i128:128-f80:128-n8:16:32:64-S128"
target triple = "x86_64-pc-linux-gnu"

%struct.iuup_circuit_t = type { i32, i32, ptr, ptr }
%struct._iuup_rfci_t = type { i32, i32, i32, [8 x %struct.anon.0], ptr }
%struct.anon.0 = type { i32 }

@hf_iuup_init_rfci_ind = internal global i32 0, align 4
@hf_iuup_init_rfci = internal global [64 x i32] zeroinitializer, align 16
@hf_iuup_init_rfci_flow_len = internal global [64 x [8 x i32]] zeroinitializer, align 16
@hf_iuup_init_rfci_li = internal global [64 x i32] zeroinitializer, align 16
@hf_iuup_init_rfci_lri = internal global [64 x i32] zeroinitializer, align 16
@ett_rfci = internal global i32 0, align 4
@.str.2768 = private unnamed_addr constant [29 x i8] c"%s:%u: failed assertion \22%s\22\00", align 1
@.str.2769 = private unnamed_addr constant [30 x i8] c"epan/dissectors/packet-iuup.c\00", align 1
@.str.2785 = private unnamed_addr constant [13 x i8] c"iuup_circuit\00", align 1
@.str.2786 = private unnamed_addr constant [7 x i8] c"c < 64\00", align 1
@.str.2787 = private unnamed_addr constant [23 x i8] c"RFCI %i Initialization\00", align 1

; Function Attrs: null_pointer_is_valid sspstrong uwtable
define internal i32 @dissect_rfcis(ptr noundef %0, ptr noundef %1, ptr noundef %2, ptr noundef %3, ptr noundef %4) #0 {
  %6 = alloca ptr, align 8
  %7 = alloca ptr, align 8
  %8 = alloca ptr, align 8
  %9 = alloca ptr, align 8
  %10 = alloca ptr, align 8
  %11 = alloca ptr, align 8
  %12 = alloca ptr, align 8
  %13 = alloca i8, align 1
  %14 = alloca i32, align 4
  %15 = alloca i32, align 4
  %16 = alloca ptr, align 8
  %17 = alloca i32, align 4
  %18 = alloca i32, align 4
  store ptr %0, ptr %6, align 8
  store ptr %1, ptr %7, align 8
  store ptr %2, ptr %8, align 8
  store ptr %3, ptr %9, align 8
  store ptr %4, ptr %10, align 8
  call void @llvm.lifetime.start.p0(i64 8, ptr %11) #8
  call void @llvm.lifetime.start.p0(i64 8, ptr %12) #8
  call void @llvm.lifetime.start.p0(i64 1, ptr %13) #8
  call void @llvm.lifetime.start.p0(i64 4, ptr %14) #8
  store i32 0, ptr %14, align 4
  call void @llvm.lifetime.start.p0(i64 4, ptr %15) #8
  %19 = load ptr, ptr %10, align 8
  %20 = icmp ne ptr %19, null
  br i1 %20, label %21, label %22

21:                                               ; preds = %5
  br label %24

22:                                               ; preds = %5
  call void (ptr, ...) @proto_report_dissector_bug(ptr noundef @.str.2768, ptr noundef @.str.2769, i32 noundef 391, ptr noundef @.str.2785) #9
  unreachable

23:                                               ; No predecessors!
  br label %24

24:                                               ; preds = %23, %21
  br label %25

25:                                               ; preds = %180, %24
  call void @llvm.lifetime.start.p0(i64 8, ptr %16) #8
  %26 = call ptr @wmem_file_scope()
  %27 = call noalias ptr @wmem_alloc0(ptr noundef %26, i64 noundef 56) #10
  store ptr %27, ptr %16, align 8
  call void @llvm.lifetime.start.p0(i64 4, ptr %17) #8
  store i32 0, ptr %17, align 4
  %28 = load i32, ptr %14, align 4
  %29 = icmp ult i32 %28, 64
  br i1 %29, label %30, label %31

30:                                               ; preds = %25
  br label %33

31:                                               ; preds = %25
  call void (ptr, ...) @proto_report_dissector_bug(ptr noundef @.str.2768, ptr noundef @.str.2769, i32 noundef 396, ptr noundef @.str.2786) #9
  unreachable

32:                                               ; No predecessors!
  br label %33

33:                                               ; preds = %32, %30
  %34 = load ptr, ptr %8, align 8
  %35 = load i32, ptr @hf_iuup_init_rfci_ind, align 4
  %36 = load ptr, ptr %6, align 8
  %37 = load ptr, ptr %9, align 8
  %38 = load i32, ptr %37, align 4
  %39 = call ptr @proto_tree_add_item(ptr noundef %34, i32 noundef %35, ptr noundef %36, i32 noundef %38, i32 noundef -1, i32 noundef 0)
  store ptr %39, ptr %11, align 8
  %40 = load ptr, ptr %11, align 8
  %41 = load i32, ptr @ett_rfci, align 4
  %42 = call ptr @proto_item_add_subtree(ptr noundef %40, i32 noundef %41)
  store ptr %42, ptr %12, align 8
  %43 = load ptr, ptr %12, align 8
  %44 = load i32, ptr %14, align 4
  %45 = zext i32 %44 to i64
  %46 = getelementptr [64 x i32], ptr @hf_iuup_init_rfci_lri, i64 0, i64 %45
  %47 = load i32, ptr %46, align 4
  %48 = load ptr, ptr %6, align 8
  %49 = load ptr, ptr %9, align 8
  %50 = load i32, ptr %49, align 4
  %51 = call ptr @proto_tree_add_item(ptr noundef %43, i32 noundef %47, ptr noundef %48, i32 noundef %50, i32 noundef 1, i32 noundef 0)
  %52 = load ptr, ptr %12, align 8
  %53 = load i32, ptr %14, align 4
  %54 = zext i32 %53 to i64
  %55 = getelementptr [64 x i32], ptr @hf_iuup_init_rfci_li, i64 0, i64 %54
  %56 = load i32, ptr %55, align 4
  %57 = load ptr, ptr %6, align 8
  %58 = load ptr, ptr %9, align 8
  %59 = load i32, ptr %58, align 4
  %60 = call ptr @proto_tree_add_item(ptr noundef %52, i32 noundef %56, ptr noundef %57, i32 noundef %59, i32 noundef 1, i32 noundef 0)
  %61 = load ptr, ptr %12, align 8
  %62 = load i32, ptr %14, align 4
  %63 = zext i32 %62 to i64
  %64 = getelementptr [64 x i32], ptr @hf_iuup_init_rfci, i64 0, i64 %63
  %65 = load i32, ptr %64, align 4
  %66 = load ptr, ptr %6, align 8
  %67 = load ptr, ptr %9, align 8
  %68 = load i32, ptr %67, align 4
  %69 = call ptr @proto_tree_add_item(ptr noundef %61, i32 noundef %65, ptr noundef %66, i32 noundef %68, i32 noundef 1, i32 noundef 0)
  %70 = load ptr, ptr %6, align 8
  %71 = load ptr, ptr %9, align 8
  %72 = load i32, ptr %71, align 4
  %73 = call zeroext i8 @tvb_get_uint8(ptr noundef %70, i32 noundef %72)
  store i8 %73, ptr %13, align 1
  %74 = load i8, ptr %13, align 1
  %75 = zext i8 %74 to i32
  %76 = and i32 %75, 63
  %77 = load ptr, ptr %16, align 8
  %78 = getelementptr inbounds nuw %struct._iuup_rfci_t, ptr %77, i32 0, i32 0
  store i32 %76, ptr %78, align 8
  %79 = load ptr, ptr %10, align 8
  %80 = getelementptr inbounds nuw %struct.iuup_circuit_t, ptr %79, i32 0, i32 1
  %81 = load i32, ptr %80, align 4
  %82 = load ptr, ptr %16, align 8
  %83 = getelementptr inbounds nuw %struct._iuup_rfci_t, ptr %82, i32 0, i32 2
  store i32 %81, ptr %83, align 8
  %84 = load i8, ptr %13, align 1
  %85 = zext i8 %84 to i32
  %86 = and i32 %85, 64
  %87 = icmp ne i32 %86, 0
  %88 = select i1 %87, i32 2, i32 1
  store i32 %88, ptr %17, align 4
  %89 = load ptr, ptr %11, align 8
  %90 = load ptr, ptr %16, align 8
  %91 = getelementptr inbounds nuw %struct._iuup_rfci_t, ptr %90, i32 0, i32 0
  %92 = load i32, ptr %91, align 8
  call void (ptr, ptr, ...) @proto_item_set_text(ptr noundef %89, ptr noundef @.str.2787, i32 noundef %92)
  %93 = load ptr, ptr %11, align 8
  %94 = load i32, ptr %17, align 4
  %95 = load ptr, ptr %10, align 8
  %96 = getelementptr inbounds nuw %struct.iuup_circuit_t, ptr %95, i32 0, i32 1
  %97 = load i32, ptr %96, align 4
  %98 = mul i32 %94, %97
  %99 = add i32 %98, 1
  call void @proto_item_set_len(ptr noundef %93, i32 noundef %99)
  %100 = load ptr, ptr %9, align 8
  %101 = load i32, ptr %100, align 4
  %102 = add i32 %101, 1
  store i32 %102, ptr %100, align 4
  store i32 0, ptr %15, align 4
  br label %103

103:                                              ; preds = %155, %33
  %104 = load i32, ptr %15, align 4
  %105 = load ptr, ptr %10, align 8
  %106 = getelementptr inbounds nuw %struct.iuup_circuit_t, ptr %105, i32 0, i32 1
  %107 = load i32, ptr %106, align 4
  %108 = icmp ult i32 %104, %107
  br i1 %108, label %109, label %158

109:                                              ; preds = %103
  call void @llvm.lifetime.start.p0(i64 4, ptr %18) #8
  %110 = load i32, ptr %17, align 4
  %111 = icmp eq i32 %110, 2
  br i1 %111, label %112, label %118

112:                                              ; preds = %109
  %113 = load ptr, ptr %6, align 8
  %114 = load ptr, ptr %9, align 8
  %115 = load i32, ptr %114, align 4
  %116 = call zeroext i16 @tvb_get_ntohs(ptr noundef %113, i32 noundef %115)
  %117 = zext i16 %116 to i32
  store i32 %117, ptr %18, align 4
  br label %124

118:                                              ; preds = %109
  %119 = load ptr, ptr %6, align 8
  %120 = load ptr, ptr %9, align 8
  %121 = load i32, ptr %120, align 4
  %122 = call zeroext i8 @tvb_get_uint8(ptr noundef %119, i32 noundef %121)
  %123 = zext i8 %122 to i32
  store i32 %123, ptr %18, align 4
  br label %124

124:                                              ; preds = %118, %112
  %125 = load i32, ptr %18, align 4
  %126 = load ptr, ptr %16, align 8
  %127 = getelementptr inbounds nuw %struct._iuup_rfci_t, ptr %126, i32 0, i32 3
  %128 = load i32, ptr %15, align 4
  %129 = zext i32 %128 to i64
  %130 = getelementptr [8 x %struct.anon.0], ptr %127, i64 0, i64 %129
  %131 = getelementptr inbounds nuw %struct.anon.0, ptr %130, i32 0, i32 0
  store i32 %125, ptr %131, align 4
  %132 = load i32, ptr %18, align 4
  %133 = load ptr, ptr %16, align 8
  %134 = getelementptr inbounds nuw %struct._iuup_rfci_t, ptr %133, i32 0, i32 1
  %135 = load i32, ptr %134, align 4
  %136 = add i32 %135, %132
  store i32 %136, ptr %134, align 4
  %137 = load ptr, ptr %12, align 8
  %138 = load i32, ptr %14, align 4
  %139 = zext i32 %138 to i64
  %140 = getelementptr [64 x [8 x i32]], ptr @hf_iuup_init_rfci_flow_len, i64 0, i64 %139
  %141 = load i32, ptr %15, align 4
  %142 = zext i32 %141 to i64
  %143 = getelementptr [8 x i32], ptr %140, i64 0, i64 %142
  %144 = load i32, ptr %143, align 4
  %145 = load ptr, ptr %6, align 8
  %146 = load ptr, ptr %9, align 8
  %147 = load i32, ptr %146, align 4
  %148 = load i32, ptr %17, align 4
  %149 = load i32, ptr %18, align 4
  %150 = call ptr @proto_tree_add_uint(ptr noundef %137, i32 noundef %144, ptr noundef %145, i32 noundef %147, i32 noundef %148, i32 noundef %149)
  %151 = load i32, ptr %17, align 4
  %152 = load ptr, ptr %9, align 8
  %153 = load i32, ptr %152, align 4
  %154 = add i32 %153, %151
  store i32 %154, ptr %152, align 4
  call void @llvm.lifetime.end.p0(i64 4, ptr %18) #8
  br label %155

155:                                              ; preds = %124
  %156 = load i32, ptr %15, align 4
  %157 = add i32 %156, 1
  store i32 %157, ptr %15, align 4
  br label %103, !llvm.loop !17

158:                                              ; preds = %103
  %159 = load ptr, ptr %10, align 8
  %160 = getelementptr inbounds nuw %struct.iuup_circuit_t, ptr %159, i32 0, i32 3
  %161 = load ptr, ptr %160, align 8
  %162 = icmp ne ptr %161, null
  br i1 %162, label %163, label %171

163:                                              ; preds = %158
  %164 = load ptr, ptr %16, align 8
  %165 = load ptr, ptr %10, align 8
  %166 = getelementptr inbounds nuw %struct.iuup_circuit_t, ptr %165, i32 0, i32 3
  %167 = load ptr, ptr %166, align 8
  %168 = getelementptr inbounds nuw %struct._iuup_rfci_t, ptr %167, i32 0, i32 4
  store ptr %164, ptr %168, align 8
  %169 = load ptr, ptr %10, align 8
  %170 = getelementptr inbounds nuw %struct.iuup_circuit_t, ptr %169, i32 0, i32 3
  store ptr %164, ptr %170, align 8
  br label %177

171:                                              ; preds = %158
  %172 = load ptr, ptr %16, align 8
  %173 = load ptr, ptr %10, align 8
  %174 = getelementptr inbounds nuw %struct.iuup_circuit_t, ptr %173, i32 0, i32 2
  store ptr %172, ptr %174, align 8
  %175 = load ptr, ptr %10, align 8
  %176 = getelementptr inbounds nuw %struct.iuup_circuit_t, ptr %175, i32 0, i32 3
  store ptr %172, ptr %176, align 8
  br label %177

177:                                              ; preds = %171, %163
  %178 = load i32, ptr %14, align 4
  %179 = add i32 %178, 1
  store i32 %179, ptr %14, align 4
  call void @llvm.lifetime.end.p0(i64 4, ptr %17) #8
  call void @llvm.lifetime.end.p0(i64 8, ptr %16) #8
  br label %180

180:                                              ; preds = %177
  %181 = load i8, ptr %13, align 1
  %182 = zext i8 %181 to i32
  %183 = and i32 %182, 128
  %184 = icmp ne i32 %183, 0
  %185 = xor i1 %184, true
  br i1 %185, label %25, label %186, !llvm.loop !18

186:                                              ; preds = %180
  %187 = load i32, ptr %14, align 4
  %188 = sub i32 %187, 1
  call void @llvm.lifetime.end.p0(i64 4, ptr %15) #8
  call void @llvm.lifetime.end.p0(i64 4, ptr %14) #8
  call void @llvm.lifetime.end.p0(i64 1, ptr %13) #8
  call void @llvm.lifetime.end.p0(i64 8, ptr %12) #8
  call void @llvm.lifetime.end.p0(i64 8, ptr %11) #8
  ret i32 %188
}