; Function Attrs: null_pointer_is_valid sspstrong uwtable
define internal fastcc range(i32 0, 64) i32 @dissect_rfcis(ptr noundef %0, ptr noundef %1, ptr noundef captures(none) %2, ptr noundef captures(address_is_null) %3) unnamed_addr #0 {
  %.not = icmp eq ptr %3, null
  br i1 %.not, label %8, label %.preheader

.preheader:                                       ; preds = %4
  %5 = getelementptr inbounds nuw i8, ptr %3, i64 4
  %6 = getelementptr inbounds nuw i8, ptr %3, i64 16
  %7 = getelementptr inbounds nuw i8, ptr %3, i64 8
  br label %9

8:                                                ; preds = %4
  tail call void (ptr, ...) @proto_report_dissector_bug(ptr noundef nonnull @.str.2768, ptr noundef nonnull @.str.2769, i32 noundef 391, ptr noundef nonnull @.str.2785) #11
  unreachable

9:                                                ; preds = %.preheader, %81
  %indvars.iv10 = phi i64 [ 0, %.preheader ], [ %indvars.iv.next11, %81 ]
  %10 = tail call ptr @wmem_file_scope()
  %11 = tail call noalias dereferenceable_or_null(56) ptr @wmem_alloc0(ptr noundef %10, i64 noundef 56) #10
  %exitcond.not = icmp eq i64 %indvars.iv10, 64
  br i1 %exitcond.not, label %12, label %13

12:                                               ; preds = %9
  tail call void (ptr, ...) @proto_report_dissector_bug(ptr noundef nonnull @.str.2768, ptr noundef nonnull @.str.2769, i32 noundef 396, ptr noundef nonnull @.str.2786) #11
  unreachable

13:                                               ; preds = %9
  %14 = load i32, ptr @hf_iuup_init_rfci_ind, align 4
  %15 = load i32, ptr %2, align 4
  %16 = tail call ptr @proto_tree_add_item(ptr noundef %1, i32 noundef %14, ptr noundef %0, i32 noundef %15, i32 noundef -1, i32 noundef 0)
  %17 = load i32, ptr @ett_rfci, align 4
  %18 = tail call ptr @proto_item_add_subtree(ptr noundef %16, i32 noundef %17)
  %19 = getelementptr [64 x i32], ptr @hf_iuup_init_rfci_lri, i64 0, i64 %indvars.iv10
  %20 = load i32, ptr %19, align 4
  %21 = load i32, ptr %2, align 4
  %22 = tail call ptr @proto_tree_add_item(ptr noundef %18, i32 noundef %20, ptr noundef %0, i32 noundef %21, i32 noundef 1, i32 noundef 0)
  %23 = getelementptr [64 x i32], ptr @hf_iuup_init_rfci_li, i64 0, i64 %indvars.iv10
  %24 = load i32, ptr %23, align 4
  %25 = load i32, ptr %2, align 4
  %26 = tail call ptr @proto_tree_add_item(ptr noundef %18, i32 noundef %24, ptr noundef %0, i32 noundef %25, i32 noundef 1, i32 noundef 0)
  %27 = getelementptr [64 x i32], ptr @hf_iuup_init_rfci, i64 0, i64 %indvars.iv10
  %28 = load i32, ptr %27, align 4
  %29 = load i32, ptr %2, align 4
  %30 = tail call ptr @proto_tree_add_item(ptr noundef %18, i32 noundef %28, ptr noundef %0, i32 noundef %29, i32 noundef 1, i32 noundef 0)
  %31 = load i32, ptr %2, align 4
  %32 = tail call zeroext i8 @tvb_get_uint8(ptr noundef %0, i32 noundef %31)
  %33 = zext i8 %32 to i32
  %34 = and i32 %33, 63
  store i32 %34, ptr %11, align 8
  %35 = load i32, ptr %5, align 4
  %36 = getelementptr inbounds nuw i8, ptr %11, i64 8
  store i32 %35, ptr %36, align 8
  %37 = and i32 %33, 64
  %.not65.not = icmp eq i32 %37, 0
  %38 = select i1 %.not65.not, i32 1, i32 2
  tail call void (ptr, ptr, ...) @proto_item_set_text(ptr noundef %16, ptr noundef nonnull @.str.2787, i32 noundef %34)
  %39 = load i32, ptr %5, align 4
  %.lobit = lshr exact i32 %37, 6
  %40 = shl i32 %39, %.lobit
  %41 = add i32 %40, 1
  tail call void @proto_item_set_len(ptr noundef %16, i32 noundef %41)
  %42 = load i32, ptr %2, align 4
  %43 = add i32 %42, 1
  store i32 %43, ptr %2, align 4
  %44 = load i32, ptr %5, align 4
  %.not3 = icmp eq i32 %44, 0
  br i1 %.not3, label %._crit_edge, label %.lr.ph

.lr.ph:                                           ; preds = %13
  %45 = getelementptr inbounds nuw i8, ptr %11, i64 12
  %46 = getelementptr inbounds nuw i8, ptr %11, i64 4
  br i1 %.not65.not, label %.lr.ph.split.us, label %.lr.ph.split

.lr.ph.split.us:                                  ; preds = %.lr.ph, %.lr.ph.split.us
  %47 = phi i32 [ %58, %.lr.ph.split.us ], [ %43, %.lr.ph ]
  %indvars.iv7 = phi i64 [ %indvars.iv.next8, %.lr.ph.split.us ], [ 0, %.lr.ph ]
  %48 = tail call zeroext i8 @tvb_get_uint8(ptr noundef %0, i32 noundef %47)
  %49 = zext i8 %48 to i32
  %50 = getelementptr [8 x %struct.anon.0], ptr %45, i64 0, i64 %indvars.iv7
  store i32 %49, ptr %50, align 4
  %51 = load i32, ptr %46, align 4
  %52 = add i32 %51, %49
  store i32 %52, ptr %46, align 4
  %53 = getelementptr [64 x [8 x i32]], ptr @hf_iuup_init_rfci_flow_len, i64 0, i64 %indvars.iv10, i64 %indvars.iv7
  %54 = load i32, ptr %53, align 4
  %55 = load i32, ptr %2, align 4
  %56 = tail call ptr @proto_tree_add_uint(ptr noundef %18, i32 noundef %54, ptr noundef %0, i32 noundef %55, i32 noundef %38, i32 noundef %49)
  %57 = load i32, ptr %2, align 4
  %58 = add i32 %57, %38
  store i32 %58, ptr %2, align 4
  %indvars.iv.next8 = add nuw nsw i64 %indvars.iv7, 1
  %59 = load i32, ptr %5, align 4
  %60 = zext i32 %59 to i64
  %61 = icmp samesign ult i64 %indvars.iv.next8, %60
  br i1 %61, label %.lr.ph.split.us, label %._crit_edge, !llvm.loop !17

.lr.ph.split:                                     ; preds = %.lr.ph, %.lr.ph.split
  %62 = phi i32 [ %73, %.lr.ph.split ], [ %43, %.lr.ph ]
  %indvars.iv = phi i64 [ %indvars.iv.next, %.lr.ph.split ], [ 0, %.lr.ph ]
  %63 = tail call zeroext i16 @tvb_get_ntohs(ptr noundef %0, i32 noundef %62)
  %64 = zext i16 %63 to i32
  %65 = getelementptr [8 x %struct.anon.0], ptr %45, i64 0, i64 %indvars.iv
  store i32 %64, ptr %65, align 4
  %66 = load i32, ptr %46, align 4
  %67 = add i32 %66, %64
  store i32 %67, ptr %46, align 4
  %68 = getelementptr [64 x [8 x i32]], ptr @hf_iuup_init_rfci_flow_len, i64 0, i64 %indvars.iv10, i64 %indvars.iv
  %69 = load i32, ptr %68, align 4
  %70 = load i32, ptr %2, align 4
  %71 = tail call ptr @proto_tree_add_uint(ptr noundef %18, i32 noundef %69, ptr noundef %0, i32 noundef %70, i32 noundef %38, i32 noundef %64)
  %72 = load i32, ptr %2, align 4
  %73 = add i32 %72, %38
  store i32 %73, ptr %2, align 4
  %indvars.iv.next = add nuw nsw i64 %indvars.iv, 1
  %74 = load i32, ptr %5, align 4
  %75 = zext i32 %74 to i64
  %76 = icmp samesign ult i64 %indvars.iv.next, %75
  br i1 %76, label %.lr.ph.split, label %._crit_edge, !llvm.loop !17

._crit_edge:                                      ; preds = %.lr.ph.split, %.lr.ph.split.us, %13
  %77 = load ptr, ptr %6, align 8
  %.not66 = icmp eq ptr %77, null
  br i1 %.not66, label %80, label %78

78:                                               ; preds = %._crit_edge
  %79 = getelementptr inbounds nuw i8, ptr %77, i64 48
  store ptr %11, ptr %79, align 8
  br label %81

80:                                               ; preds = %._crit_edge
  store ptr %11, ptr %7, align 8
  br label %81

81:                                               ; preds = %80, %78
  store ptr %11, ptr %6, align 8
  %indvars.iv.next11 = add nuw nsw i64 %indvars.iv10, 1
  %.not67 = icmp sgt i8 %32, -1
  br i1 %.not67, label %9, label %82, !llvm.loop !18

82:                                               ; preds = %81
  %83 = trunc nuw nsw i64 %indvars.iv10 to i32
  ret i32 %83
}